; ModuleID = '14/114.c'
source_filename = "14/114.c"
target datalayout = "e-m:e-p270:32:32-p271:32:32-p272:64:64-i64:64-f80:128-n8:16:32:64-S128"
target triple = "x86_64-pc-linux-gnu"

%struct.data = type { [100000 x i32], [100000 x i32], [100000 x i32], [100000 x i32] }

@.str = private unnamed_addr constant [3 x i8] c"%d\00", align 1
@.str.1 = private unnamed_addr constant [9 x i8] c"%d %d %d\00", align 1
@data = common dso_local global %struct.data zeroinitializer, align 4
@.str.2 = private unnamed_addr constant [7 x i8] c"%d %d\0A\00", align 1
@.str.3 = private unnamed_addr constant [6 x i8] c"%d %d\00", align 1

; Function Attrs: noinline nounwind uwtable
define dso_local i32 @main(i32 %0, i8** %1) #0 {
  %3 = alloca i32, align 4
  %4 = alloca i32, align 4
  %5 = alloca i8**, align 8
  %6 = alloca i32, align 4
  %7 = alloca i32, align 4
  %8 = alloca i32, align 4
  %9 = alloca i32, align 4
  %10 = alloca i32, align 4
  store i32 0, i32* %3, align 4
  store i32 %0, i32* %4, align 4
  store i8** %1, i8*** %5, align 8
  store i32 0, i32* %8, align 4
  store i32 0, i32* %9, align 4
  store i32 0, i32* %10, align 4
  %11 = call i32 (i8*, ...) @__isoc99_scanf(i8* getelementptr inbounds ([3 x i8], [3 x i8]* @.str, i64 0, i64 0), i32* %7)
  store i32 0, i32* %6, align 4
  br label %12

12:                                               ; preds = %39, %2
  %13 = load i32, i32* %6, align 4
  %14 = load i32, i32* %7, align 4
  %15 = icmp slt i32 %13, %14
  br i1 %15, label %16, label %42

16:                                               ; preds = %12
  %17 = load i32, i32* %6, align 4
  %18 = sext i32 %17 to i64
  %19 = getelementptr inbounds [100000 x i32], [100000 x i32]* getelementptr inbounds (%struct.data, %struct.data* @data, i32 0, i32 0), i64 0, i64 %18
  %20 = load i32, i32* %6, align 4
  %21 = sext i32 %20 to i64
  %22 = getelementptr inbounds [100000 x i32], [100000 x i32]* getelementptr inbounds (%struct.data, %struct.data* @data, i32 0, i32 1), i64 0, i64 %21
  %23 = load i32, i32* %6, align 4
  %24 = sext i32 %23 to i64
  %25 = getelementptr inbounds [100000 x i32], [100000 x i32]* getelementptr inbounds (%struct.data, %struct.data* @data, i32 0, i32 2), i64 0, i64 %24
  %26 = call i32 (i8*, ...) @__isoc99_scanf(i8* getelementptr inbounds ([9 x i8], [9 x i8]* @.str.1, i64 0, i64 0), i32* %19, i32* %22, i32* %25)
  %27 = load i32, i32* %6, align 4
  %28 = sext i32 %27 to i64
  %29 = getelementptr inbounds [100000 x i32], [100000 x i32]* getelementptr inbounds (%struct.data, %struct.data* @data, i32 0, i32 1), i64 0, i64 %28
  %30 = load i32, i32* %29, align 4
  %31 = load i32, i32* %6, align 4
  %32 = sext i32 %31 to i64
  %33 = getelementptr inbounds [100000 x i32], [100000 x i32]* getelementptr inbounds (%struct.data, %struct.data* @data, i32 0, i32 2), i64 0, i64 %32
  %34 = load i32, i32* %33, align 4
  %35 = add nsw i32 %30, %34
  %36 = load i32, i32* %6, align 4
  %37 = sext i32 %36 to i64
  %38 = getelementptr inbounds [100000 x i32], [100000 x i32]* getelementptr inbounds (%struct.data, %struct.data* @data, i32 0, i32 3), i64 0, i64 %37
  store i32 %35, i32* %38, align 4
  br label %39

39:                                               ; preds = %16
  %40 = load i32, i32* %6, align 4
  %41 = add nsw i32 %40, 1
  store i32 %41, i32* %6, align 4
  br label %12

42:                                               ; preds = %12
  store i32 0, i32* %6, align 4
  br label %43

43:                                               ; preds = %107, %42
  %44 = load i32, i32* %6, align 4
  %45 = load i32, i32* %7, align 4
  %46 = icmp slt i32 %44, %45
  br i1 %46, label %47, label %110

47:                                               ; preds = %43
  %48 = load i32, i32* %6, align 4
  %49 = sext i32 %48 to i64
  %50 = getelementptr inbounds [100000 x i32], [100000 x i32]* getelementptr inbounds (%struct.data, %struct.data* @data, i32 0, i32 3), i64 0, i64 %49
  %51 = load i32, i32* %50, align 4
  %52 = load i32, i32* %8, align 4
  %53 = sext i32 %52 to i64
  %54 = getelementptr inbounds [100000 x i32], [100000 x i32]* getelementptr inbounds (%struct.data, %struct.data* @data, i32 0, i32 3), i64 0, i64 %53
  %55 = load i32, i32* %54, align 4
  %56 = icmp sgt i32 %51, %55
  br i1 %56, label %57, label %61

57:                                               ; preds = %47
  %58 = load i32, i32* %9, align 4
  store i32 %58, i32* %10, align 4
  %59 = load i32, i32* %8, align 4
  store i32 %59, i32* %9, align 4
  %60 = load i32, i32* %6, align 4
  store i32 %60, i32* %8, align 4
  br label %107

61:                                               ; preds = %47
  %62 = load i32, i32* %6, align 4
  %63 = sext i32 %62 to i64
  %64 = getelementptr inbounds [100000 x i32], [100000 x i32]* getelementptr inbounds (%struct.data, %struct.data* @data, i32 0, i32 3), i64 0, i64 %63
  %65 = load i32, i32* %64, align 4
  %66 = load i32, i32* %8, align 4
  %67 = sext i32 %66 to i64
  %68 = getelementptr inbounds [100000 x i32], [100000 x i32]* getelementptr inbounds (%struct.data, %struct.data* @data, i32 0, i32 3), i64 0, i64 %67
  %69 = load i32, i32* %68, align 4
  %70 = icmp sle i32 %65, %69
  br i1 %70, label %71, label %84

71:                                               ; preds = %61
  %72 = load i32, i32* %6, align 4
  %73 = sext i32 %72 to i64
  %74 = getelementptr inbounds [100000 x i32], [100000 x i32]* getelementptr inbounds (%struct.data, %struct.data* @data, i32 0, i32 3), i64 0, i64 %73
  %75 = load i32, i32* %74, align 4
  %76 = load i32, i32* %9, align 4
  %77 = sext i32 %76 to i64
  %78 = getelementptr inbounds [100000 x i32], [100000 x i32]* getelementptr inbounds (%struct.data, %struct.data* @data, i32 0, i32 3), i64 0, i64 %77
  %79 = load i32, i32* %78, align 4
  %80 = icmp sgt i32 %75, %79
  br i1 %80, label %81, label %84

81:                                               ; preds = %71
  %82 = load i32, i32* %9, align 4
  store i32 %82, i32* %10, align 4
  %83 = load i32, i32* %6, align 4
  store i32 %83, i32* %9, align 4
  br label %107

84:                                               ; preds = %71, %61
  %85 = load i32, i32* %6, align 4
  %86 = sext i32 %85 to i64
  %87 = getelementptr inbounds [100000 x i32], [100000 x i32]* getelementptr inbounds (%struct.data, %struct.data* @data, i32 0, i32 3), i64 0, i64 %86
  %88 = load i32, i32* %87, align 4
  %89 = load i32, i32* %9, align 4
  %90 = sext i32 %89 to i64
  %91 = getelementptr inbounds [100000 x i32], [100000 x i32]* getelementptr inbounds (%struct.data, %struct.data* @data, i32 0, i32 3), i64 0, i64 %90
  %92 = load i32, i32* %91, align 4
  %93 = icmp sle i32 %88, %92
  br i1 %93, label %94, label %106

94:                                               ; preds = %84
  %95 = load i32, i32* %6, align 4
  %96 = sext i32 %95 to i64
  %97 = getelementptr inbounds [100000 x i32], [100000 x i32]* getelementptr inbounds (%struct.data, %struct.data* @data, i32 0, i32 3), i64 0, i64 %96
  %98 = load i32, i32* %97, align 4
  %99 = load i32, i32* %10, align 4
  %100 = sext i32 %99 to i64
  %101 = getelementptr inbounds [100000 x i32], [100000 x i32]* getelementptr inbounds (%struct.data, %struct.data* @data, i32 0, i32 3), i64 0, i64 %100
  %102 = load i32, i32* %101, align 4
  %103 = icmp sgt i32 %98, %102
  br i1 %103, label %104, label %106

104:                                              ; preds = %94
  %105 = load i32, i32* %6, align 4
  store i32 %105, i32* %10, align 4
  br label %106

106:                                              ; preds = %104, %94, %84
  br label %107

107:                                              ; preds = %106, %81, %57
  %108 = load i32, i32* %6, align 4
  %109 = add nsw i32 %108, 1
  store i32 %109, i32* %6, align 4
  br label %43

110:                                              ; preds = %43
  %111 = load i32, i32* %8, align 4
  %112 = sext i32 %111 to i64
  %113 = getelementptr inbounds [100000 x i32], [100000 x i32]* getelementptr inbounds (%struct.data, %struct.data* @data, i32 0, i32 0), i64 0, i64 %112
  %114 = load i32, i32* %113, align 4
  %115 = load i32, i32* %8, align 4
  %116 = sext i32 %115 to i64
  %117 = getelementptr inbounds [100000 x i32], [100000 x i32]* getelementptr inbounds (%struct.data, %struct.data* @data, i32 0, i32 3), i64 0, i64 %116
  %118 = load i32, i32* %117, align 4
  %119 = call i32 (i8*, ...) @printf(i8* getelementptr inbounds ([7 x i8], [7 x i8]* @.str.2, i64 0, i64 0), i32 %114, i32 %118)
  %120 = load i32, i32* %9, align 4
  %121 = sext i32 %120 to i64
  %122 = getelementptr inbounds [100000 x i32], [100000 x i32]* getelementptr inbounds (%struct.data, %struct.data* @data, i32 0, i32 0), i64 0, i64 %121
  %123 = load i32, i32* %122, align 4
  %124 = load i32, i32* %9, align 4
  %125 = sext i32 %124 to i64
  %126 = getelementptr inbounds [100000 x i32], [100000 x i32]* getelementptr inbounds (%struct.data, %struct.data* @data, i32 0, i32 3), i64 0, i64 %125
  %127 = load i32, i32* %126, align 4
  %128 = call i32 (i8*, ...) @printf(i8* getelementptr inbounds ([7 x i8], [7 x i8]* @.str.2, i64 0, i64 0), i32 %123, i32 %127)
  %129 = load i32, i32* %10, align 4
  %130 = sext i32 %129 to i64
  %131 = getelementptr inbounds [100000 x i32], [100000 x i32]* getelementptr inbounds (%struct.data, %struct.data* @data, i32 0, i32 0), i64 0, i64 %130
  %132 = load i32, i32* %131, align 4
  %133 = load i32, i32* %10, align 4
  %134 = sext i32 %133 to i64
  %135 = getelementptr inbounds [100000 x i32], [100000 x i32]* getelementptr inbounds (%struct.data, %struct.data* @data, i32 0, i32 3), i64 0, i64 %134
  %136 = load i32, i32* %135, align 4
  %137 = call i32 (i8*, ...) @printf(i8* getelementptr inbounds ([6 x i8], [6 x i8]* @.str.3, i64 0, i64 0), i32 %132, i32 %136)
  %138 = load i32, i32* %3, align 4
  ret i32 %138
}

declare dso_local i32 @__isoc99_scanf(i8*, ...) #1

declare dso_local i32 @printf(i8*, ...) #1


!llvm.module.flags = !{!0}
!llvm.ident = !{!1}

!0 = !{i32 1, !"wchar_size", i32 4}
!1 = !{!"clang version 10.0.0-4ubuntu1 "}
